; ModuleID = 'source-C-CXX/3/870.cpp'
source_filename = "source-C-CXX/3/870.cpp"
target datalayout = "e-m:e-p270:32:32-p271:32:32-p272:64:64-i64:64-f80:128-n8:16:32:64-S128"
target triple = "x86_64-pc-linux-gnu"

%"class.std::ios_base::Init" = type { i8 }
%"class.std::basic_istream" = type { i32 (...)**, i64, %"class.std::basic_ios" }
%"class.std::basic_ios" = type { %"class.std::ios_base", %"class.std::basic_ostream"*, i8, i8, %"class.std::basic_streambuf"*, %"class.std::ctype"*, %"class.std::num_put"*, %"class.std::num_get"* }
%"class.std::ios_base" = type { i32 (...)**, i64, i64, i32, i32, i32, %"struct.std::ios_base::_Callback_list"*, %"struct.std::ios_base::_Words", [8 x %"struct.std::ios_base::_Words"], i32, %"struct.std::ios_base::_Words"*, %"class.std::locale" }
%"struct.std::ios_base::_Callback_list" = type { %"struct.std::ios_base::_Callback_list"*, void (i32, %"class.std::ios_base"*, i32)*, i32, i32 }
%"struct.std::ios_base::_Words" = type { i8*, i64 }
%"class.std::locale" = type { %"class.std::locale::_Impl"* }
%"class.std::locale::_Impl" = type { i32, %"class.std::locale::facet"**, i64, %"class.std::locale::facet"**, i8** }
%"class.std::locale::facet" = type <{ i32 (...)**, i32, [4 x i8] }>
%"class.std::basic_ostream" = type { i32 (...)**, %"class.std::basic_ios" }
%"class.std::basic_streambuf" = type { i32 (...)**, i8*, i8*, i8*, i8*, i8*, i8*, %"class.std::locale" }
%"class.std::ctype" = type <{ %"class.std::locale::facet.base", [4 x i8], %struct.__locale_struct*, i8, [7 x i8], i32*, i32*, i16*, i8, [256 x i8], [256 x i8], i8, [6 x i8] }>
%"class.std::locale::facet.base" = type <{ i32 (...)**, i32 }>
%struct.__locale_struct = type { [13 x %struct.__locale_data*], i16*, i32*, i32*, [13 x i8*] }
%struct.__locale_data = type opaque
%"class.std::num_put" = type { %"class.std::locale::facet.base", [4 x i8] }
%"class.std::num_get" = type { %"class.std::locale::facet.base", [4 x i8] }

@_ZStL8__ioinit = internal global %"class.std::ios_base::Init" zeroinitializer, align 1
@__dso_handle = external hidden global i8
@_ZSt3cin = external global %"class.std::basic_istream", align 8
@_ZSt4cout = external global %"class.std::basic_ostream", align 8
@llvm.global_ctors = appending global [1 x { i32, void ()*, i8* }] [{ i32, void ()*, i8* } { i32 65535, void ()* @_GLOBAL__sub_I_870.cpp, i8* null }]

declare void @_ZNSt8ios_base4InitC1Ev(%"class.std::ios_base::Init"* nonnull align 1 dereferenceable(1)) unnamed_addr #0

; Function Attrs: nounwind
declare void @_ZNSt8ios_base4InitD1Ev(%"class.std::ios_base::Init"* nonnull align 1 dereferenceable(1)) unnamed_addr #1

; Function Attrs: nofree nounwind
declare i32 @__cxa_atexit(void (i8*)*, i8*, i8*) local_unnamed_addr #2

; Function Attrs: mustprogress norecurse sspstrong uwtable
define dso_local i32 @main() local_unnamed_addr #3 {
  %1 = alloca [99 x [99 x i32]], align 16
  %2 = alloca i32, align 4
  %3 = alloca i32, align 4
  %4 = bitcast [99 x [99 x i32]]* %1 to i8*
  call void @llvm.lifetime.start.p0i8(i64 39204, i8* nonnull %4) #7
  %5 = bitcast i32* %2 to i8*
  call void @llvm.lifetime.start.p0i8(i64 4, i8* nonnull %5) #7
  %6 = bitcast i32* %3 to i8*
  call void @llvm.lifetime.start.p0i8(i64 4, i8* nonnull %6) #7
  %7 = call nonnull align 8 dereferenceable(16) %"class.std::basic_istream"* @_ZNSirsERi(%"class.std::basic_istream"* nonnull align 8 dereferenceable(16) @_ZSt3cin, i32* nonnull align 4 dereferenceable(4) %2)
  %8 = call nonnull align 8 dereferenceable(16) %"class.std::basic_istream"* @_ZNSirsERi(%"class.std::basic_istream"* nonnull align 8 dereferenceable(16) %7, i32* nonnull align 4 dereferenceable(4) %3)
  %9 = load i32, i32* %2, align 4, !tbaa !5
  %10 = icmp sgt i32 %9, 0
  %11 = load i32, i32* %3, align 4
  %12 = icmp sgt i32 %11, 0
  %13 = select i1 %10, i1 %12, i1 false
  br i1 %13, label %16, label %14

14:                                               ; preds = %23, %0
  %15 = phi i32 [ %9, %0 ], [ %24, %23 ]
  br label %37

16:                                               ; preds = %0, %23
  %17 = phi i32 [ %24, %23 ], [ %9, %0 ]
  %18 = phi i32 [ %25, %23 ], [ %11, %0 ]
  %19 = phi i64 [ %26, %23 ], [ 0, %0 ]
  %20 = icmp sgt i32 %18, 0
  br i1 %20, label %29, label %23

21:                                               ; preds = %29
  %22 = load i32, i32* %2, align 4, !tbaa !5
  br label %23

23:                                               ; preds = %21, %16
  %24 = phi i32 [ %22, %21 ], [ %17, %16 ]
  %25 = phi i32 [ %34, %21 ], [ %18, %16 ]
  %26 = add nuw nsw i64 %19, 1
  %27 = sext i32 %24 to i64
  %28 = icmp slt i64 %26, %27
  br i1 %28, label %16, label %14, !llvm.loop !9

29:                                               ; preds = %16, %29
  %30 = phi i64 [ %33, %29 ], [ 0, %16 ]
  %31 = getelementptr inbounds [99 x [99 x i32]], [99 x [99 x i32]]* %1, i64 0, i64 %19, i64 %30
  %32 = call nonnull align 8 dereferenceable(16) %"class.std::basic_istream"* @_ZNSirsERi(%"class.std::basic_istream"* nonnull align 8 dereferenceable(16) @_ZSt3cin, i32* nonnull align 4 dereferenceable(4) %31)
  %33 = add nuw nsw i64 %30, 1
  %34 = load i32, i32* %3, align 4, !tbaa !5
  %35 = sext i32 %34 to i64
  %36 = icmp slt i64 %33, %35
  br i1 %36, label %29, label %21, !llvm.loop !12

37:                                               ; preds = %14, %84
  %38 = phi i32 [ %85, %84 ], [ %15, %14 ]
  %39 = phi i64 [ %89, %84 ], [ 0, %14 ]
  %40 = phi i32 [ %86, %84 ], [ 0, %14 ]
  %41 = icmp sgt i32 %38, 0
  br i1 %41, label %42, label %84

42:                                               ; preds = %37, %73
  %43 = phi i64 [ %77, %73 ], [ 0, %37 ]
  %44 = phi i64 [ %83, %73 ], [ %39, %37 ]
  %45 = getelementptr inbounds [99 x [99 x i32]], [99 x [99 x i32]]* %1, i64 0, i64 %43, i64 %44
  %46 = load i32, i32* %45, align 4, !tbaa !5
  %47 = call nonnull align 8 dereferenceable(8) %"class.std::basic_ostream"* @_ZNSolsEi(%"class.std::basic_ostream"* nonnull align 8 dereferenceable(8) @_ZSt4cout, i32 %46)
  %48 = bitcast %"class.std::basic_ostream"* %47 to i8**
  %49 = load i8*, i8** %48, align 8, !tbaa !13
  %50 = getelementptr i8, i8* %49, i64 -24
  %51 = bitcast i8* %50 to i64*
  %52 = load i64, i64* %51, align 8
  %53 = bitcast %"class.std::basic_ostream"* %47 to i8*
  %54 = add nsw i64 %52, 240
  %55 = getelementptr inbounds i8, i8* %53, i64 %54
  %56 = bitcast i8* %55 to %"class.std::ctype"**
  %57 = load %"class.std::ctype"*, %"class.std::ctype"** %56, align 8, !tbaa !15
  %58 = icmp eq %"class.std::ctype"* %57, null
  br i1 %58, label %59, label %60

59:                                               ; preds = %42
  call void @_ZSt16__throw_bad_castv() #8
  unreachable

60:                                               ; preds = %42
  %61 = getelementptr inbounds %"class.std::ctype", %"class.std::ctype"* %57, i64 0, i32 8
  %62 = load i8, i8* %61, align 8, !tbaa !19
  %63 = icmp eq i8 %62, 0
  br i1 %63, label %67, label %64

64:                                               ; preds = %60
  %65 = getelementptr inbounds %"class.std::ctype", %"class.std::ctype"* %57, i64 0, i32 9, i64 10
  %66 = load i8, i8* %65, align 1, !tbaa !21
  br label %73

67:                                               ; preds = %60
  call void @_ZNKSt5ctypeIcE13_M_widen_initEv(%"class.std::ctype"* nonnull align 8 dereferenceable(570) %57)
  %68 = bitcast %"class.std::ctype"* %57 to i8 (%"class.std::ctype"*, i8)***
  %69 = load i8 (%"class.std::ctype"*, i8)**, i8 (%"class.std::ctype"*, i8)*** %68, align 8, !tbaa !13
  %70 = getelementptr inbounds i8 (%"class.std::ctype"*, i8)*, i8 (%"class.std::ctype"*, i8)** %69, i64 6
  %71 = load i8 (%"class.std::ctype"*, i8)*, i8 (%"class.std::ctype"*, i8)** %70, align 8
  %72 = call signext i8 %71(%"class.std::ctype"* nonnull align 8 dereferenceable(570) %57, i8 signext 10)
  br label %73

73:                                               ; preds = %64, %67
  %74 = phi i8 [ %66, %64 ], [ %72, %67 ]
  %75 = call nonnull align 8 dereferenceable(8) %"class.std::basic_ostream"* @_ZNSo3putEc(%"class.std::basic_ostream"* nonnull align 8 dereferenceable(8) %47, i8 signext %74)
  %76 = call nonnull align 8 dereferenceable(8) %"class.std::basic_ostream"* @_ZNSo5flushEv(%"class.std::basic_ostream"* nonnull align 8 dereferenceable(8) %75)
  %77 = add nuw nsw i64 %43, 1
  %78 = load i32, i32* %2, align 4, !tbaa !5
  %79 = sext i32 %78 to i64
  %80 = icmp slt i64 %77, %79
  %81 = icmp sgt i64 %44, 0
  %82 = select i1 %80, i1 %81, i1 false
  %83 = add nsw i64 %44, -1
  br i1 %82, label %42, label %84, !llvm.loop !22

84:                                               ; preds = %73, %37
  %85 = phi i32 [ %38, %37 ], [ %78, %73 ]
  %86 = add nuw nsw i32 %40, 1
  %87 = load i32, i32* %3, align 4, !tbaa !5
  %88 = icmp slt i32 %86, %87
  %89 = add nuw nsw i64 %39, 1
  br i1 %88, label %37, label %90, !llvm.loop !23

90:                                               ; preds = %84, %147
  %91 = phi i32 [ %148, %147 ], [ %87, %84 ]
  %92 = phi i32 [ %149, %147 ], [ %85, %84 ]
  %93 = phi i64 [ %152, %147 ], [ 1, %84 ]
  %94 = phi i32 [ %150, %147 ], [ 1, %84 ]
  %95 = icmp slt i32 %94, %92
  %96 = icmp sgt i32 %91, 0
  %97 = select i1 %95, i1 %96, i1 false
  br i1 %97, label %98, label %147

98:                                               ; preds = %90
  %99 = zext i32 %91 to i64
  br label %100

100:                                              ; preds = %98, %134
  %101 = phi i64 [ %93, %98 ], [ %138, %134 ]
  %102 = phi i64 [ %99, %98 ], [ %144, %134 ]
  %103 = phi i32 [ %91, %98 ], [ %104, %134 ]
  %104 = add nsw i32 %103, -1
  %105 = zext i32 %104 to i64
  %106 = getelementptr inbounds [99 x [99 x i32]], [99 x [99 x i32]]* %1, i64 0, i64 %101, i64 %105
  %107 = load i32, i32* %106, align 4, !tbaa !5
  %108 = call nonnull align 8 dereferenceable(8) %"class.std::basic_ostream"* @_ZNSolsEi(%"class.std::basic_ostream"* nonnull align 8 dereferenceable(8) @_ZSt4cout, i32 %107)
  %109 = bitcast %"class.std::basic_ostream"* %108 to i8**
  %110 = load i8*, i8** %109, align 8, !tbaa !13
  %111 = getelementptr i8, i8* %110, i64 -24
  %112 = bitcast i8* %111 to i64*
  %113 = load i64, i64* %112, align 8
  %114 = bitcast %"class.std::basic_ostream"* %108 to i8*
  %115 = add nsw i64 %113, 240
  %116 = getelementptr inbounds i8, i8* %114, i64 %115
  %117 = bitcast i8* %116 to %"class.std::ctype"**
  %118 = load %"class.std::ctype"*, %"class.std::ctype"** %117, align 8, !tbaa !15
  %119 = icmp eq %"class.std::ctype"* %118, null
  br i1 %119, label %120, label %121

120:                                              ; preds = %100
  call void @_ZSt16__throw_bad_castv() #8
  unreachable

121:                                              ; preds = %100
  %122 = getelementptr inbounds %"class.std::ctype", %"class.std::ctype"* %118, i64 0, i32 8
  %123 = load i8, i8* %122, align 8, !tbaa !19
  %124 = icmp eq i8 %123, 0
  br i1 %124, label %128, label %125

125:                                              ; preds = %121
  %126 = getelementptr inbounds %"class.std::ctype", %"class.std::ctype"* %118, i64 0, i32 9, i64 10
  %127 = load i8, i8* %126, align 1, !tbaa !21
  br label %134

128:                                              ; preds = %121
  call void @_ZNKSt5ctypeIcE13_M_widen_initEv(%"class.std::ctype"* nonnull align 8 dereferenceable(570) %118)
  %129 = bitcast %"class.std::ctype"* %118 to i8 (%"class.std::ctype"*, i8)***
  %130 = load i8 (%"class.std::ctype"*, i8)**, i8 (%"class.std::ctype"*, i8)*** %129, align 8, !tbaa !13
  %131 = getelementptr inbounds i8 (%"class.std::ctype"*, i8)*, i8 (%"class.std::ctype"*, i8)** %130, i64 6
  %132 = load i8 (%"class.std::ctype"*, i8)*, i8 (%"class.std::ctype"*, i8)** %131, align 8
  %133 = call signext i8 %132(%"class.std::ctype"* nonnull align 8 dereferenceable(570) %118, i8 signext 10)
  br label %134

134:                                              ; preds = %125, %128
  %135 = phi i8 [ %127, %125 ], [ %133, %128 ]
  %136 = call nonnull align 8 dereferenceable(8) %"class.std::basic_ostream"* @_ZNSo3putEc(%"class.std::basic_ostream"* nonnull align 8 dereferenceable(8) %108, i8 signext %135)
  %137 = call nonnull align 8 dereferenceable(8) %"class.std::basic_ostream"* @_ZNSo5flushEv(%"class.std::basic_ostream"* nonnull align 8 dereferenceable(8) %136)
  %138 = add nuw nsw i64 %101, 1
  %139 = load i32, i32* %2, align 4, !tbaa !5
  %140 = trunc i64 %138 to i32
  %141 = icmp sgt i32 %139, %140
  %142 = icmp sgt i64 %102, 1
  %143 = select i1 %141, i1 %142, i1 false
  %144 = add nsw i64 %102, -1
  br i1 %143, label %100, label %145, !llvm.loop !24

145:                                              ; preds = %134
  %146 = load i32, i32* %3, align 4, !tbaa !5
  br label %147

147:                                              ; preds = %145, %90
  %148 = phi i32 [ %91, %90 ], [ %146, %145 ]
  %149 = phi i32 [ %92, %90 ], [ %139, %145 ]
  %150 = add nuw nsw i32 %94, 1
  %151 = icmp slt i32 %150, %149
  %152 = add nuw nsw i64 %93, 1
  br i1 %151, label %90, label %153, !llvm.loop !25

153:                                              ; preds = %147
  call void @llvm.lifetime.end.p0i8(i64 4, i8* nonnull %6) #7
  call void @llvm.lifetime.end.p0i8(i64 4, i8* nonnull %5) #7
  call void @llvm.lifetime.end.p0i8(i64 39204, i8* nonnull %4) #7
  ret i32 0
}

; Function Attrs: argmemonly mustprogress nofree nosync nounwind willreturn
declare void @llvm.lifetime.start.p0i8(i64 immarg, i8* nocapture) #4

declare nonnull align 8 dereferenceable(16) %"class.std::basic_istream"* @_ZNSirsERi(%"class.std::basic_istream"* nonnull align 8 dereferenceable(16), i32* nonnull align 4 dereferenceable(4)) local_unnamed_addr #0

; Function Attrs: argmemonly mustprogress nofree nosync nounwind willreturn
declare void @llvm.lifetime.end.p0i8(i64 immarg, i8* nocapture) #4

declare nonnull align 8 dereferenceable(8) %"class.std::basic_ostream"* @_ZNSolsEi(%"class.std::basic_ostream"* nonnull align 8 dereferenceable(8), i32) local_unnamed_addr #0

declare nonnull align 8 dereferenceable(8) %"class.std::basic_ostream"* @_ZNSo3putEc(%"class.std::basic_ostream"* nonnull align 8 dereferenceable(8), i8 signext) local_unnamed_addr #0

declare nonnull align 8 dereferenceable(8) %"class.std::basic_ostream"* @_ZNSo5flushEv(%"class.std::basic_ostream"* nonnull align 8 dereferenceable(8)) local_unnamed_addr #0

; Function Attrs: noreturn
declare void @_ZSt16__throw_bad_castv() local_unnamed_addr #5

declare void @_ZNKSt5ctypeIcE13_M_widen_initEv(%"class.std::ctype"* nonnull align 8 dereferenceable(570)) local_unnamed_addr #0

; Function Attrs: sspstrong uwtable
define internal void @_GLOBAL__sub_I_870.cpp() #6 section ".text.startup" {
  tail call void @_ZNSt8ios_base4InitC1Ev(%"class.std::ios_base::Init"* nonnull align 1 dereferenceable(1) @_ZStL8__ioinit)
  %1 = tail call i32 @__cxa_atexit(void (i8*)* bitcast (void (%"class.std::ios_base::Init"*)* @_ZNSt8ios_base4InitD1Ev to void (i8*)*), i8* getelementptr inbounds (%"class.std::ios_base::Init", %"class.std::ios_base::Init"* @_ZStL8__ioinit, i64 0, i32 0), i8* nonnull @__dso_handle) #7
  ret void
}


!llvm.module.flags = !{!0, !1, !2, !3}
!llvm.ident = !{!4}

!0 = !{i32 1, !"wchar_size", i32 4}
!1 = !{i32 7, !"PIC Level", i32 2}
!2 = !{i32 7, !"PIE Level", i32 2}
!3 = !{i32 7, !"uwtable", i32 1}
!4 = !{!"clang version 13.0.0"}
!5 = !{!6, !6, i64 0}
!6 = !{!"int", !7, i64 0}
!7 = !{!"omnipotent char", !8, i64 0}
!8 = !{!"Simple C++ TBAA"}
!9 = distinct !{!9, !10, !11}
!10 = !{!"llvm.loop.mustprogress"}
!11 = !{!"llvm.loop.unswitch.partial.disable"}
!12 = distinct !{!12, !10}
!13 = !{!14, !14, i64 0}
!14 = !{!"vtable pointer", !8, i64 0}
!15 = !{!16, !17, i64 240}
!16 = !{!"_ZTSSt9basic_iosIcSt11char_traitsIcEE", !17, i64 216, !7, i64 224, !18, i64 225, !17, i64 232, !17, i64 240, !17, i64 248, !17, i64 256}
!17 = !{!"any pointer", !7, i64 0}
!18 = !{!"bool", !7, i64 0}
!19 = !{!20, !7, i64 56}
!20 = !{!"_ZTSSt5ctypeIcE", !17, i64 16, !18, i64 24, !17, i64 32, !17, i64 40, !17, i64 48, !7, i64 56, !7, i64 57, !7, i64 313, !7, i64 569}
!21 = !{!7, !7, i64 0}
!22 = distinct !{!22, !10}
!23 = distinct !{!23, !10}
!24 = distinct !{!24, !10}
!25 = distinct !{!25, !10}
